; Function Attrs: mustprogress uwtable
define void @_ZN5Ipopt17RegisteredOptions22AddBoundedNumberOptionERKNSt7__cxx1112basic_stringIcSt11char_traitsIcESaIcEEES8_dbdbdS8_b(ptr noundef nonnull align 8 dereferenceable(128) %0, ptr noundef nonnull align 8 dereferenceable(32) %1, ptr noundef nonnull align 8 dereferenceable(32) %2, double noundef %3, i1 noundef zeroext %4, double noundef %5, i1 noundef zeroext %6, double noundef %7, ptr noundef nonnull align 8 dereferenceable(32) %8, i1 noundef zeroext %9) unnamed_addr #3 align 2 personality ptr @__gxx_personality_v0 {
  %11 = alloca double, align 8
  %12 = alloca i8, align 1
  %13 = alloca double, align 8
  %14 = alloca i8, align 1
  %15 = alloca double, align 8
  %16 = alloca %"class.Ipopt::SmartPtr.21", align 8
  %17 = alloca i32, align 4
  store double %3, ptr %11, align 8, !tbaa !85
  %18 = zext i1 %4 to i8
  store i8 %18, ptr %12, align 1, !tbaa !98
  store double %5, ptr %13, align 8, !tbaa !85
  %19 = zext i1 %6 to i8
  store i8 %19, ptr %14, align 1, !tbaa !98
  store double %7, ptr %15, align 8, !tbaa !85
  call void @llvm.lifetime.start.p0(i64 8, ptr nonnull %16) #23
  %20 = tail call noalias noundef nonnull dereferenceable(224) ptr @_Znwm(i64 noundef 224) #27
  %21 = getelementptr inbounds nuw i8, ptr %0, i64 120
  %22 = getelementptr inbounds nuw i8, ptr %0, i64 112
  %23 = load i32, ptr %22, align 8, !tbaa !86
  %24 = add nsw i32 %23, 1
  store i32 %24, ptr %22, align 8, !tbaa !86
  invoke void @_ZN5Ipopt16RegisteredOptionC2ERKNSt7__cxx1112basic_stringIcSt11char_traitsIcESaIcEEES8_S8_RKNS_8SmartPtrINS_18RegisteredCategoryEEEib(ptr noundef nonnull align 8 dereferenceable(220) %20, ptr noundef nonnull align 8 dereferenceable(32) %1, ptr noundef nonnull align 8 dereferenceable(32) %2, ptr noundef nonnull align 8 dereferenceable(32) %8, ptr noundef nonnull align 8 dereferenceable(8) %21, i32 noundef %23, i1 noundef zeroext %9)
          to label %25 unwind label %53

25:                                               ; preds = %10
  %26 = getelementptr inbounds nuw i8, ptr %20, i64 8
  %27 = load i32, ptr %26, align 8, !tbaa !59
  %28 = add nsw i32 %27, 1
  store i32 %28, ptr %26, align 8, !tbaa !59
  store ptr %20, ptr %16, align 8, !tbaa !80
  call void @llvm.lifetime.start.p0(i64 4, ptr nonnull %17) #23
  store i32 0, ptr %17, align 4, !tbaa !96
  %29 = load ptr, ptr %20, align 8, !tbaa !32
  %30 = getelementptr inbounds nuw i8, ptr %29, i64 80
  %31 = load ptr, ptr %30, align 8
  invoke void %31(ptr noundef nonnull align 8 dereferenceable(220) %20, ptr noundef nonnull align 4 dereferenceable(4) %17)
          to label %32 unwind label %57

32:                                               ; preds = %25
  call void @llvm.lifetime.end.p0(i64 4, ptr nonnull %17) #23
  %33 = load ptr, ptr %20, align 8, !tbaa !32
  %34 = getelementptr inbounds nuw i8, ptr %33, i64 224
  %35 = load ptr, ptr %34, align 8
  invoke void %35(ptr noundef nonnull align 8 dereferenceable(220) %20, ptr noundef nonnull align 8 dereferenceable(8) %15)
          to label %36 unwind label %55

36:                                               ; preds = %32
  %37 = load ptr, ptr %20, align 8, !tbaa !32
  %38 = getelementptr inbounds nuw i8, ptr %37, i64 136
  %39 = load ptr, ptr %38, align 8
  invoke void %39(ptr noundef nonnull align 8 dereferenceable(220) %20, ptr noundef nonnull align 8 dereferenceable(8) %11, ptr noundef nonnull align 1 dereferenceable(1) %12)
          to label %40 unwind label %55

40:                                               ; preds = %36
  %41 = load ptr, ptr %20, align 8, !tbaa !32
  %42 = getelementptr inbounds nuw i8, ptr %41, i64 184
  %43 = load ptr, ptr %42, align 8
  invoke void %43(ptr noundef nonnull align 8 dereferenceable(220) %20, ptr noundef nonnull align 8 dereferenceable(8) %13, ptr noundef nonnull align 1 dereferenceable(1) %14)
          to label %44 unwind label %55

44:                                               ; preds = %40
  invoke void @_ZN5Ipopt17RegisteredOptions9AddOptionERKNS_8SmartPtrINS_16RegisteredOptionEEE(ptr noundef nonnull align 8 dereferenceable(128) %0, ptr noundef nonnull align 8 dereferenceable(8) %16)
          to label %45 unwind label %55

45:                                               ; preds = %44
  %46 = load i32, ptr %26, align 8, !tbaa !59
  %47 = add nsw i32 %46, -1
  store i32 %47, ptr %26, align 8, !tbaa !59
  %48 = icmp eq i32 %47, 0
  br i1 %48, label %49, label %_ZN5Ipopt8SmartPtrINS_16RegisteredOptionEED2Ev.exit

49:                                               ; preds = %45
  %50 = load ptr, ptr %20, align 8, !tbaa !32
  %51 = getelementptr inbounds nuw i8, ptr %50, i64 8
  %52 = load ptr, ptr %51, align 8
  call void %52(ptr noundef nonnull align 8 dereferenceable(220) %20) #23
  br label %_ZN5Ipopt8SmartPtrINS_16RegisteredOptionEED2Ev.exit

_ZN5Ipopt8SmartPtrINS_16RegisteredOptionEED2Ev.exit: ; preds = %45, %49
  call void @llvm.lifetime.end.p0(i64 8, ptr nonnull %16) #23
  ret void

53:                                               ; preds = %10
  %54 = landingpad { ptr, i32 }
          cleanup
  tail call void @_ZdlPvm(ptr noundef nonnull %20, i64 noundef 224) #24
  br label %_ZN5Ipopt8SmartPtrINS_16RegisteredOptionEED2Ev.exit11

55:                                               ; preds = %44, %40, %36, %32
  %56 = landingpad { ptr, i32 }
          cleanup
  br label %59

57:                                               ; preds = %25
  %58 = landingpad { ptr, i32 }
          cleanup
  call void @llvm.lifetime.end.p0(i64 4, ptr nonnull %17) #23
  br label %59

59:                                               ; preds = %55, %57
  %.pn = phi { ptr, i32 } [ %56, %55 ], [ %58, %57 ]
  %60 = load i32, ptr %26, align 8, !tbaa !59
  %61 = add nsw i32 %60, -1
  store i32 %61, ptr %26, align 8, !tbaa !59
  %62 = icmp eq i32 %61, 0
  br i1 %62, label %63, label %_ZN5Ipopt8SmartPtrINS_16RegisteredOptionEED2Ev.exit11

63:                                               ; preds = %59
  %64 = load ptr, ptr %20, align 8, !tbaa !32
  %65 = getelementptr inbounds nuw i8, ptr %64, i64 8
  %66 = load ptr, ptr %65, align 8
  call void %66(ptr noundef nonnull align 8 dereferenceable(220) %20) #23
  br label %_ZN5Ipopt8SmartPtrINS_16RegisteredOptionEED2Ev.exit11

_ZN5Ipopt8SmartPtrINS_16RegisteredOptionEED2Ev.exit11: ; preds = %63, %59, %53
  %.pn.pn = phi { ptr, i32 } [ %54, %53 ], [ %.pn, %59 ], [ %.pn, %63 ]
  call void @llvm.lifetime.end.p0(i64 8, ptr nonnull %16) #23
  resume { ptr, i32 } %.pn.pn
}